target datalayout = "e-m:e-p270:32:32-p271:32:32-p272:64:64-i64:64-i128:128-f80:128-n8:16:32:64-S128"
target triple = "x86_64-pc-linux-gnu"

%struct.lv_color_t = type { i8, i8, i8 }
%struct.lv_point_t = type { i32, i32 }
%struct.lv_area_t = type { i32, i32, i32, i32 }
%struct.lv_draw_rect_dsc_t = type { %struct.lv_draw_dsc_base_t, i32, i8, %struct.lv_color_t, %struct.lv_grad_dsc_t, ptr, ptr, %struct.lv_color_t, i8, i8, i8, %struct.lv_color_t, i32, i8, i8, %struct.lv_color_t, i32, i32, i8, %struct.lv_color_t, i32, i32, i32, i32, i8 }
%struct.lv_draw_dsc_base_t = type { ptr, i32, i32, i32, ptr, i64, ptr }
%struct.lv_grad_dsc_t = type { [2 x %struct.lv_gradient_stop_t], i8, i8 }
%struct.lv_gradient_stop_t = type { %struct.lv_color_t, i8, i8 }
%struct.lv_draw_label_dsc_t = type { %struct.lv_draw_dsc_base_t, ptr, ptr, i32, i32, %struct.lv_color_t, %struct.lv_color_t, %struct.lv_color_t, i32, i32, i32, i32, i8, i32, i32, i32, i8, ptr }

@font_normal = internal global ptr null, align 8
@.str.38 = private unnamed_addr constant [3 x i8] c"%d\00", align 1

; Function Attrs: nounwind uwtable
define internal void @slider_event_cb(ptr noundef %0) #0 {
  %2 = alloca ptr, align 8
  %3 = alloca i32, align 4
  %4 = alloca ptr, align 8
  %5 = alloca ptr, align 8
  %6 = alloca ptr, align 8
  %7 = alloca i32, align 4
  %8 = alloca ptr, align 8
  %9 = alloca [8 x i8], align 1
  %10 = alloca %struct.lv_point_t, align 4
  %11 = alloca %struct.lv_area_t, align 4
  %12 = alloca %struct.lv_area_t, align 4
  %13 = alloca %struct.lv_area_t, align 4
  %14 = alloca %struct.lv_draw_rect_dsc_t, align 8
  %15 = alloca %struct.lv_color_t, align 1
  %16 = alloca %struct.lv_draw_label_dsc_t, align 8
  %17 = alloca %struct.lv_color_t, align 1
  store ptr %0, ptr %2, align 8, !tbaa !7
  call void @llvm.lifetime.start.p0(i64 4, ptr %3) #5
  %18 = load ptr, ptr %2, align 8, !tbaa !7
  %19 = call i32 @lv_event_get_code(ptr noundef %18)
  store i32 %19, ptr %3, align 4, !tbaa !3
  call void @llvm.lifetime.start.p0(i64 8, ptr %4) #5
  %20 = load ptr, ptr %2, align 8, !tbaa !7
  %21 = call ptr @lv_event_get_target(ptr noundef %20)
  store ptr %21, ptr %4, align 8, !tbaa !7
  %22 = load i32, ptr %3, align 4, !tbaa !3
  %23 = icmp eq i32 %22, 27
  br i1 %23, label %24, label %37

24:                                               ; preds = %1
  call void @llvm.lifetime.start.p0(i64 8, ptr %5) #5
  %25 = load ptr, ptr %2, align 8, !tbaa !7
  %26 = call ptr @lv_event_get_param(ptr noundef %25)
  store ptr %26, ptr %5, align 8, !tbaa !7
  %27 = load ptr, ptr %5, align 8, !tbaa !7
  %28 = load i32, ptr %27, align 4, !tbaa !3
  %29 = icmp sgt i32 %28, 60
  br i1 %29, label %30, label %33

30:                                               ; preds = %24
  %31 = load ptr, ptr %5, align 8, !tbaa !7
  %32 = load i32, ptr %31, align 4, !tbaa !3
  br label %34

33:                                               ; preds = %24
  br label %34

34:                                               ; preds = %33, %30
  %35 = phi i32 [ %32, %30 ], [ 60, %33 ]
  %36 = load ptr, ptr %5, align 8, !tbaa !7
  store i32 %35, ptr %36, align 4, !tbaa !3
  call void @llvm.lifetime.end.p0(i64 8, ptr %5) #5
  br label %202

37:                                               ; preds = %1
  %38 = load i32, ptr %3, align 4, !tbaa !3
  %39 = icmp eq i32 %38, 34
  br i1 %39, label %40, label %201

40:                                               ; preds = %37
  call void @llvm.lifetime.start.p0(i64 8, ptr %6) #5
  %41 = load ptr, ptr %2, align 8, !tbaa !7
  %42 = call ptr @lv_event_get_param(ptr noundef %41)
  store ptr %42, ptr %6, align 8, !tbaa !7
  %43 = load ptr, ptr %6, align 8, !tbaa !7
  %44 = icmp eq ptr %43, null
  br i1 %44, label %49, label %45

45:                                               ; preds = %40
  %46 = load ptr, ptr %6, align 8, !tbaa !7
  %47 = call i32 @lv_draw_task_get_type(ptr noundef %46)
  %48 = icmp ne i32 %47, 1
  br i1 %48, label %49, label %50

49:                                               ; preds = %45, %40
  store i32 1, ptr %7, align 4
  br label %198

50:                                               ; preds = %45
  call void @llvm.lifetime.start.p0(i64 8, ptr %8) #5
  %51 = load ptr, ptr %6, align 8, !tbaa !7
  %52 = call ptr @lv_draw_task_get_draw_dsc(ptr noundef %51)
  store ptr %52, ptr %8, align 8, !tbaa !7
  %53 = load ptr, ptr %8, align 8, !tbaa !7
  %54 = getelementptr inbounds nuw %struct.lv_draw_rect_dsc_t, ptr %53, i32 0, i32 0
  %55 = getelementptr inbounds nuw %struct.lv_draw_dsc_base_t, ptr %54, i32 0, i32 1
  %56 = load i32, ptr %55, align 8, !tbaa !13
  %57 = icmp eq i32 %56, 196608
  br i1 %57, label %58, label %197

58:                                               ; preds = %50
  %59 = load ptr, ptr %4, align 8, !tbaa !7
  %60 = call zeroext i1 @lv_obj_has_state(ptr noundef %59, i16 noundef zeroext 32)
  br i1 %60, label %61, label %197

61:                                               ; preds = %58
  call void @llvm.lifetime.start.p0(i64 8, ptr %9) #5
  %62 = getelementptr inbounds [8 x i8], ptr %9, i64 0, i64 0
  %63 = load ptr, ptr %4, align 8, !tbaa !7
  %64 = call i32 @lv_slider_get_value(ptr noundef %63)
  %65 = call i32 (ptr, i64, ptr, ...) @lv_snprintf(ptr noundef %62, i64 noundef 8, ptr noundef @.str.38, i32 noundef %64)
  call void @llvm.lifetime.start.p0(i64 8, ptr %10) #5
  %66 = getelementptr inbounds [8 x i8], ptr %9, i64 0, i64 0
  %67 = load ptr, ptr @font_normal, align 8, !tbaa !7
  call void @lv_text_get_size(ptr noundef %10, ptr noundef %66, ptr noundef %67, i32 noundef 0, i32 noundef 0, i32 noundef 536870911, i32 noundef 0)
  call void @llvm.lifetime.start.p0(i64 16, ptr %11) #5
  call void @llvm.lifetime.start.p0(i64 16, ptr %12) #5
  %68 = load ptr, ptr %6, align 8, !tbaa !7
  call void @lv_draw_task_get_area(ptr noundef %68, ptr noundef %12)
  %69 = getelementptr inbounds nuw %struct.lv_area_t, ptr %12, i32 0, i32 0
  %70 = load i32, ptr %69, align 4, !tbaa !19
  %71 = call i32 @lv_area_get_width(ptr noundef %12)
  %72 = sdiv i32 %71, 2
  %73 = add nsw i32 %70, %72
  %74 = getelementptr inbounds nuw %struct.lv_point_t, ptr %10, i32 0, i32 0
  %75 = load i32, ptr %74, align 4, !tbaa !21
  %76 = sdiv i32 %75, 2
  %77 = sub nsw i32 %73, %76
  %78 = getelementptr inbounds nuw %struct.lv_area_t, ptr %11, i32 0, i32 0
  store i32 %77, ptr %78, align 4, !tbaa !19
  %79 = getelementptr inbounds nuw %struct.lv_area_t, ptr %11, i32 0, i32 0
  %80 = load i32, ptr %79, align 4, !tbaa !19
  %81 = getelementptr inbounds nuw %struct.lv_point_t, ptr %10, i32 0, i32 0
  %82 = load i32, ptr %81, align 4, !tbaa !21
  %83 = add nsw i32 %80, %82
  %84 = getelementptr inbounds nuw %struct.lv_area_t, ptr %11, i32 0, i32 2
  store i32 %83, ptr %84, align 4, !tbaa !23
  %85 = getelementptr inbounds nuw %struct.lv_area_t, ptr %12, i32 0, i32 1
  %86 = load i32, ptr %85, align 4, !tbaa !24
  %87 = sub nsw i32 %86, 10
  %88 = getelementptr inbounds nuw %struct.lv_area_t, ptr %11, i32 0, i32 3
  store i32 %87, ptr %88, align 4, !tbaa !25
  %89 = getelementptr inbounds nuw %struct.lv_area_t, ptr %11, i32 0, i32 3
  %90 = load i32, ptr %89, align 4, !tbaa !25
  %91 = getelementptr inbounds nuw %struct.lv_point_t, ptr %10, i32 0, i32 1
  %92 = load i32, ptr %91, align 4, !tbaa !26
  %93 = sub nsw i32 %90, %92
  %94 = getelementptr inbounds nuw %struct.lv_area_t, ptr %11, i32 0, i32 1
  store i32 %93, ptr %94, align 4, !tbaa !24
  call void @llvm.lifetime.start.p0(i64 16, ptr %13) #5
  %95 = getelementptr inbounds nuw %struct.lv_area_t, ptr %11, i32 0, i32 0
  %96 = load i32, ptr %95, align 4, !tbaa !19
  %97 = call i32 @lv_display_get_dpi(ptr noundef null)
  %98 = mul nsw i32 %97, 8
  %99 = add nsw i32 %98, 80
  %100 = sdiv i32 %99, 160
  %101 = icmp sgt i32 %100, 1
  br i1 %101, label %102, label %107

102:                                              ; preds = %61
  %103 = call i32 @lv_display_get_dpi(ptr noundef null)
  %104 = mul nsw i32 %103, 8
  %105 = add nsw i32 %104, 80
  %106 = sdiv i32 %105, 160
  br label %108

107:                                              ; preds = %61
  br label %108

108:                                              ; preds = %107, %102
  %109 = phi i32 [ %106, %102 ], [ 1, %107 ]
  %110 = sub nsw i32 %96, %109
  %111 = getelementptr inbounds nuw %struct.lv_area_t, ptr %13, i32 0, i32 0
  store i32 %110, ptr %111, align 4, !tbaa !19
  %112 = getelementptr inbounds nuw %struct.lv_area_t, ptr %11, i32 0, i32 2
  %113 = load i32, ptr %112, align 4, !tbaa !23
  %114 = call i32 @lv_display_get_dpi(ptr noundef null)
  %115 = mul nsw i32 %114, 8
  %116 = add nsw i32 %115, 80
  %117 = sdiv i32 %116, 160
  %118 = icmp sgt i32 %117, 1
  br i1 %118, label %119, label %124

119:                                              ; preds = %108
  %120 = call i32 @lv_display_get_dpi(ptr noundef null)
  %121 = mul nsw i32 %120, 8
  %122 = add nsw i32 %121, 80
  %123 = sdiv i32 %122, 160
  br label %125

124:                                              ; preds = %108
  br label %125

125:                                              ; preds = %124, %119
  %126 = phi i32 [ %123, %119 ], [ 1, %124 ]
  %127 = add nsw i32 %113, %126
  %128 = getelementptr inbounds nuw %struct.lv_area_t, ptr %13, i32 0, i32 2
  store i32 %127, ptr %128, align 4, !tbaa !23
  %129 = getelementptr inbounds nuw %struct.lv_area_t, ptr %11, i32 0, i32 1
  %130 = load i32, ptr %129, align 4, !tbaa !24
  %131 = call i32 @lv_display_get_dpi(ptr noundef null)
  %132 = mul nsw i32 %131, 8
  %133 = add nsw i32 %132, 80
  %134 = sdiv i32 %133, 160
  %135 = icmp sgt i32 %134, 1
  br i1 %135, label %136, label %141

136:                                              ; preds = %125
  %137 = call i32 @lv_display_get_dpi(ptr noundef null)
  %138 = mul nsw i32 %137, 8
  %139 = add nsw i32 %138, 80
  %140 = sdiv i32 %139, 160
  br label %142

141:                                              ; preds = %125
  br label %142

142:                                              ; preds = %141, %136
  %143 = phi i32 [ %140, %136 ], [ 1, %141 ]
  %144 = sub nsw i32 %130, %143
  %145 = getelementptr inbounds nuw %struct.lv_area_t, ptr %13, i32 0, i32 1
  store i32 %144, ptr %145, align 4, !tbaa !24
  %146 = getelementptr inbounds nuw %struct.lv_area_t, ptr %11, i32 0, i32 3
  %147 = load i32, ptr %146, align 4, !tbaa !25
  %148 = call i32 @lv_display_get_dpi(ptr noundef null)
  %149 = mul nsw i32 %148, 8
  %150 = add nsw i32 %149, 80
  %151 = sdiv i32 %150, 160
  %152 = icmp sgt i32 %151, 1
  br i1 %152, label %153, label %158

153:                                              ; preds = %142
  %154 = call i32 @lv_display_get_dpi(ptr noundef null)
  %155 = mul nsw i32 %154, 8
  %156 = add nsw i32 %155, 80
  %157 = sdiv i32 %156, 160
  br label %159

158:                                              ; preds = %142
  br label %159

159:                                              ; preds = %158, %153
  %160 = phi i32 [ %157, %153 ], [ 1, %158 ]
  %161 = add nsw i32 %147, %160
  %162 = getelementptr inbounds nuw %struct.lv_area_t, ptr %13, i32 0, i32 3
  store i32 %161, ptr %162, align 4, !tbaa !25
  call void @llvm.lifetime.start.p0(i64 144, ptr %14) #5
  call void @lv_draw_rect_dsc_init(ptr noundef %14)
  %163 = getelementptr inbounds nuw %struct.lv_draw_rect_dsc_t, ptr %14, i32 0, i32 3
  call void @llvm.lifetime.start.p0(i64 3, ptr %15) #5
  %164 = call i24 @lv_palette_darken(i32 noundef 18, i8 noundef zeroext 3)
  store i24 %164, ptr %15, align 1
  call void @llvm.memcpy.p0.p0.i64(ptr align 1 %163, ptr align 1 %15, i64 3, i1 false), !tbaa.struct !27
  call void @llvm.lifetime.end.p0(i64 3, ptr %15) #5
  %165 = call i32 @lv_display_get_dpi(ptr noundef null)
  %166 = mul nsw i32 %165, 5
  %167 = add nsw i32 %166, 80
  %168 = sdiv i32 %167, 160
  %169 = icmp sgt i32 %168, 1
  br i1 %169, label %170, label %175

170:                                              ; preds = %159
  %171 = call i32 @lv_display_get_dpi(ptr noundef null)
  %172 = mul nsw i32 %171, 5
  %173 = add nsw i32 %172, 80
  %174 = sdiv i32 %173, 160
  br label %176

175:                                              ; preds = %159
  br label %176

176:                                              ; preds = %175, %170
  %177 = phi i32 [ %174, %170 ], [ 1, %175 ]
  %178 = getelementptr inbounds nuw %struct.lv_draw_rect_dsc_t, ptr %14, i32 0, i32 1
  store i32 %177, ptr %178, align 8, !tbaa !29
  %179 = load ptr, ptr %8, align 8, !tbaa !7
  %180 = getelementptr inbounds nuw %struct.lv_draw_rect_dsc_t, ptr %179, i32 0, i32 0
  %181 = getelementptr inbounds nuw %struct.lv_draw_dsc_base_t, ptr %180, i32 0, i32 4
  %182 = load ptr, ptr %181, align 8, !tbaa !30
  call void @lv_draw_rect(ptr noundef %182, ptr noundef %14, ptr noundef %13)
  call void @llvm.lifetime.start.p0(i64 128, ptr %16) #5
  call void @lv_draw_label_dsc_init(ptr noundef %16)
  %183 = getelementptr inbounds nuw %struct.lv_draw_label_dsc_t, ptr %16, i32 0, i32 5
  call void @llvm.lifetime.start.p0(i64 3, ptr %17) #5
  %184 = call i24 @lv_color_white()
  store i24 %184, ptr %17, align 1
  call void @llvm.memcpy.p0.p0.i64(ptr align 8 %183, ptr align 1 %17, i64 3, i1 false), !tbaa.struct !27
  call void @llvm.lifetime.end.p0(i64 3, ptr %17) #5
  %185 = load ptr, ptr @font_normal, align 8, !tbaa !7
  %186 = getelementptr inbounds nuw %struct.lv_draw_label_dsc_t, ptr %16, i32 0, i32 2
  store ptr %185, ptr %186, align 8, !tbaa !31
  %187 = getelementptr inbounds [8 x i8], ptr %9, i64 0, i64 0
  %188 = getelementptr inbounds nuw %struct.lv_draw_label_dsc_t, ptr %16, i32 0, i32 1
  store ptr %187, ptr %188, align 8, !tbaa !33
  %189 = getelementptr inbounds nuw %struct.lv_draw_label_dsc_t, ptr %16, i32 0, i32 16
  %190 = load i8, ptr %189, align 4
  %191 = and i8 %190, -65
  %192 = or i8 %191, 64
  store i8 %192, ptr %189, align 4
  %193 = load ptr, ptr %8, align 8, !tbaa !7
  %194 = getelementptr inbounds nuw %struct.lv_draw_rect_dsc_t, ptr %193, i32 0, i32 0
  %195 = getelementptr inbounds nuw %struct.lv_draw_dsc_base_t, ptr %194, i32 0, i32 4
  %196 = load ptr, ptr %195, align 8, !tbaa !30
  call void @lv_draw_label(ptr noundef %196, ptr noundef %16, ptr noundef %11)
  call void @llvm.lifetime.end.p0(i64 128, ptr %16) #5
  call void @llvm.lifetime.end.p0(i64 144, ptr %14) #5
  call void @llvm.lifetime.end.p0(i64 16, ptr %13) #5
  call void @llvm.lifetime.end.p0(i64 16, ptr %12) #5
  call void @llvm.lifetime.end.p0(i64 16, ptr %11) #5
  call void @llvm.lifetime.end.p0(i64 8, ptr %10) #5
  call void @llvm.lifetime.end.p0(i64 8, ptr %9) #5
  br label %197

197:                                              ; preds = %176, %58, %50
  call void @llvm.lifetime.end.p0(i64 8, ptr %8) #5
  store i32 0, ptr %7, align 4
  br label %198

198:                                              ; preds = %197, %49
  call void @llvm.lifetime.end.p0(i64 8, ptr %6) #5
  %199 = load i32, ptr %7, align 4
  switch i32 %199, label %203 [
    i32 0, label %200
  ]

200:                                              ; preds = %198
  br label %201

201:                                              ; preds = %200, %37
  br label %202

202:                                              ; preds = %201, %34
  store i32 0, ptr %7, align 4
  br label %203

203:                                              ; preds = %202, %198
  call void @llvm.lifetime.end.p0(i64 8, ptr %4) #5
  call void @llvm.lifetime.end.p0(i64 4, ptr %3) #5
  %204 = load i32, ptr %7, align 4
  switch i32 %204, label %206 [
    i32 0, label %205
    i32 1, label %205
  ]

205:                                              ; preds = %203, %203
  ret void

206:                                              ; preds = %203
  unreachable
}