; Function Attrs: nounwind uwtable
define internal void @slider_event_cb(ptr noundef %0) #0 {
  %2 = alloca [8 x i8], align 1
  %3 = alloca %struct.lv_point_t, align 4
  %4 = alloca %struct.lv_area_t, align 4
  %5 = alloca %struct.lv_area_t, align 4
  %6 = alloca %struct.lv_area_t, align 4
  %7 = alloca %struct.lv_draw_rect_dsc_t, align 8
  %8 = alloca %struct.lv_draw_label_dsc_t, align 8
  %9 = tail call i32 @lv_event_get_code(ptr noundef %0) #5
  %10 = tail call ptr @lv_event_get_target(ptr noundef %0) #5
  switch i32 %9, label %.critedge [
    i32 27, label %11
    i32 34, label %14
  ]

11:                                               ; preds = %1
  %12 = tail call ptr @lv_event_get_param(ptr noundef %0) #5
  %13 = load i32, ptr %12, align 4, !tbaa !3
  %spec.select = tail call i32 @llvm.smax.i32(i32 %13, i32 60)
  store i32 %spec.select, ptr %12, align 4, !tbaa !3
  br label %.critedge

14:                                               ; preds = %1
  %15 = tail call ptr @lv_event_get_param(ptr noundef %0) #5
  %16 = icmp eq ptr %15, null
  br i1 %16, label %.critedge, label %17

17:                                               ; preds = %14
  %18 = tail call i32 @lv_draw_task_get_type(ptr noundef nonnull %15) #5
  %.not = icmp eq i32 %18, 1
  br i1 %.not, label %19, label %.critedge

19:                                               ; preds = %17
  %20 = tail call ptr @lv_draw_task_get_draw_dsc(ptr noundef nonnull %15) #5
  %21 = getelementptr inbounds nuw i8, ptr %20, i64 8
  %22 = load i32, ptr %21, align 8, !tbaa !13
  %23 = icmp eq i32 %22, 196608
  br i1 %23, label %24, label %.critedge

24:                                               ; preds = %19
  %25 = tail call zeroext i1 @lv_obj_has_state(ptr noundef %10, i16 noundef zeroext 32) #5
  br i1 %25, label %26, label %.critedge

26:                                               ; preds = %24
  call void @llvm.lifetime.start.p0(i64 8, ptr nonnull %2) #5
  %27 = tail call i32 @lv_slider_get_value(ptr noundef %10) #5
  %28 = call i32 (ptr, i64, ptr, ...) @lv_snprintf(ptr noundef nonnull %2, i64 noundef 8, ptr noundef nonnull @.str.38, i32 noundef %27) #5
  call void @llvm.lifetime.start.p0(i64 8, ptr nonnull %3) #5
  %29 = load ptr, ptr @font_normal, align 8, !tbaa !7
  call void @lv_text_get_size(ptr noundef nonnull %3, ptr noundef nonnull %2, ptr noundef %29, i32 noundef 0, i32 noundef 0, i32 noundef 536870911, i32 noundef 0) #5
  call void @llvm.lifetime.start.p0(i64 16, ptr nonnull %4) #5
  call void @llvm.lifetime.start.p0(i64 16, ptr nonnull %5) #5
  call void @lv_draw_task_get_area(ptr noundef nonnull %15, ptr noundef nonnull %5) #5
  %30 = load i32, ptr %5, align 4, !tbaa !19
  %31 = call i32 @lv_area_get_width(ptr noundef nonnull %5) #5
  %32 = sdiv i32 %31, 2
  %33 = add nsw i32 %32, %30
  %34 = load i32, ptr %3, align 4, !tbaa !21
  %.neg = sdiv i32 %34, -2
  %35 = add i32 %33, %.neg
  store i32 %35, ptr %4, align 4, !tbaa !19
  %36 = add nsw i32 %35, %34
  %37 = getelementptr inbounds nuw i8, ptr %4, i64 8
  store i32 %36, ptr %37, align 4, !tbaa !23
  %38 = getelementptr inbounds nuw i8, ptr %5, i64 4
  %39 = load i32, ptr %38, align 4, !tbaa !24
  %40 = add nsw i32 %39, -10
  %41 = getelementptr inbounds nuw i8, ptr %4, i64 12
  store i32 %40, ptr %41, align 4, !tbaa !25
  %42 = getelementptr inbounds nuw i8, ptr %3, i64 4
  %43 = load i32, ptr %42, align 4, !tbaa !26
  %44 = sub nsw i32 %40, %43
  %45 = getelementptr inbounds nuw i8, ptr %4, i64 4
  store i32 %44, ptr %45, align 4, !tbaa !24
  call void @llvm.lifetime.start.p0(i64 16, ptr nonnull %6) #5
  %46 = call i32 @lv_display_get_dpi(ptr noundef null) #5
  %47 = icmp sgt i32 %46, 29
  br i1 %47, label %48, label %52

48:                                               ; preds = %26
  %49 = call i32 @lv_display_get_dpi(ptr noundef null) #5
  %50 = shl nsw i32 %49, 3
  %51 = add nsw i32 %50, 80
  %.neg22 = sdiv i32 %51, -160
  br label %52

52:                                               ; preds = %26, %48
  %.neg23 = phi i32 [ %.neg22, %48 ], [ -1, %26 ]
  %53 = add i32 %.neg23, %35
  store i32 %53, ptr %6, align 4, !tbaa !19
  %54 = call i32 @lv_display_get_dpi(ptr noundef null) #5
  %55 = icmp sgt i32 %54, 29
  br i1 %55, label %56, label %61

56:                                               ; preds = %52
  %57 = call i32 @lv_display_get_dpi(ptr noundef null) #5
  %58 = shl nsw i32 %57, 3
  %59 = add nsw i32 %58, 80
  %60 = sdiv i32 %59, 160
  br label %61

61:                                               ; preds = %52, %56
  %62 = phi i32 [ %60, %56 ], [ 1, %52 ]
  %63 = add nsw i32 %62, %36
  %64 = getelementptr inbounds nuw i8, ptr %6, i64 8
  store i32 %63, ptr %64, align 4, !tbaa !23
  %65 = call i32 @lv_display_get_dpi(ptr noundef null) #5
  %66 = icmp sgt i32 %65, 29
  br i1 %66, label %67, label %71

67:                                               ; preds = %61
  %68 = call i32 @lv_display_get_dpi(ptr noundef null) #5
  %69 = shl nsw i32 %68, 3
  %70 = add nsw i32 %69, 80
  %.neg24 = sdiv i32 %70, -160
  br label %71

71:                                               ; preds = %61, %67
  %.neg25 = phi i32 [ %.neg24, %67 ], [ -1, %61 ]
  %72 = add i32 %.neg25, %44
  %73 = getelementptr inbounds nuw i8, ptr %6, i64 4
  store i32 %72, ptr %73, align 4, !tbaa !24
  %74 = call i32 @lv_display_get_dpi(ptr noundef null) #5
  %75 = icmp sgt i32 %74, 29
  br i1 %75, label %76, label %81

76:                                               ; preds = %71
  %77 = call i32 @lv_display_get_dpi(ptr noundef null) #5
  %78 = shl nsw i32 %77, 3
  %79 = add nsw i32 %78, 80
  %80 = sdiv i32 %79, 160
  br label %81

81:                                               ; preds = %71, %76
  %82 = phi i32 [ %80, %76 ], [ 1, %71 ]
  %83 = add nsw i32 %82, %40
  %84 = getelementptr inbounds nuw i8, ptr %6, i64 12
  store i32 %83, ptr %84, align 4, !tbaa !25
  call void @llvm.lifetime.start.p0(i64 144, ptr nonnull %7) #5
  call void @lv_draw_rect_dsc_init(ptr noundef nonnull %7) #5
  %85 = getelementptr inbounds nuw i8, ptr %7, i64 53
  %86 = call i24 @lv_palette_darken(i32 noundef 18, i8 noundef zeroext 3) #5
  store i24 %86, ptr %85, align 1
  %87 = call i32 @lv_display_get_dpi(ptr noundef null) #5
  %88 = icmp sgt i32 %87, 47
  br i1 %88, label %89, label %94

89:                                               ; preds = %81
  %90 = call i32 @lv_display_get_dpi(ptr noundef null) #5
  %91 = mul nsw i32 %90, 5
  %92 = add nsw i32 %91, 80
  %93 = sdiv i32 %92, 160
  br label %94

94:                                               ; preds = %81, %89
  %95 = phi i32 [ %93, %89 ], [ 1, %81 ]
  %96 = getelementptr inbounds nuw i8, ptr %7, i64 48
  store i32 %95, ptr %96, align 8, !tbaa !27
  %97 = getelementptr inbounds nuw i8, ptr %20, i64 24
  %98 = load ptr, ptr %97, align 8, !tbaa !28
  call void @lv_draw_rect(ptr noundef %98, ptr noundef nonnull %7, ptr noundef nonnull %6) #5
  call void @llvm.lifetime.start.p0(i64 128, ptr nonnull %8) #5
  call void @lv_draw_label_dsc_init(ptr noundef nonnull %8) #5
  %99 = getelementptr inbounds nuw i8, ptr %8, i64 72
  %100 = call i24 @lv_color_white() #5
  store i24 %100, ptr %99, align 8
  %101 = load ptr, ptr @font_normal, align 8, !tbaa !7
  %102 = getelementptr inbounds nuw i8, ptr %8, i64 56
  store ptr %101, ptr %102, align 8, !tbaa !29
  %103 = getelementptr inbounds nuw i8, ptr %8, i64 48
  store ptr %2, ptr %103, align 8, !tbaa !31
  %104 = getelementptr inbounds nuw i8, ptr %8, i64 116
  %105 = load i8, ptr %104, align 4
  %106 = or i8 %105, 64
  store i8 %106, ptr %104, align 4
  %107 = load ptr, ptr %97, align 8, !tbaa !28
  call void @lv_draw_label(ptr noundef %107, ptr noundef nonnull %8, ptr noundef nonnull %4) #5
  call void @llvm.lifetime.end.p0(i64 128, ptr nonnull %8) #5
  call void @llvm.lifetime.end.p0(i64 144, ptr nonnull %7) #5
  call void @llvm.lifetime.end.p0(i64 16, ptr nonnull %6) #5
  call void @llvm.lifetime.end.p0(i64 16, ptr nonnull %5) #5
  call void @llvm.lifetime.end.p0(i64 16, ptr nonnull %4) #5
  call void @llvm.lifetime.end.p0(i64 8, ptr nonnull %3) #5
  call void @llvm.lifetime.end.p0(i64 8, ptr nonnull %2) #5
  br label %.critedge

.critedge:                                        ; preds = %17, %14, %11, %1, %19, %24, %94
  ret void
}